target datalayout = "e-m:e-p270:32:32-p271:32:32-p272:64:64-i64:64-i128:128-f80:128-n8:16:32:64-S128"
target triple = "x86_64-pc-linux-gnu"

%struct.AVRational = type { i32, i32 }
%struct.AVPacket = type { ptr, i64, i64, ptr, i32, i32, i32, ptr, i32, i64, i64, ptr, ptr, %struct.AVRational }

; Function Attrs: nounwind uwtable
define i32 @av_packet_from_data(ptr noundef %0, ptr noundef %1, i32 noundef %2) #0 {
  %4 = alloca i32, align 4
  %5 = alloca ptr, align 8
  %6 = alloca ptr, align 8
  %7 = alloca i32, align 4
  store ptr %0, ptr %5, align 8, !tbaa !4
  store ptr %1, ptr %6, align 8, !tbaa !42
  store i32 %2, ptr %7, align 4, !tbaa !28
  %8 = load i32, ptr %7, align 4, !tbaa !28
  %9 = icmp sge i32 %8, 2147483583
  br i1 %9, label %10, label %11

10:                                               ; preds = %3
  store i32 -22, ptr %4, align 4
  br label %31

11:                                               ; preds = %3
  %12 = load ptr, ptr %6, align 8, !tbaa !42
  %13 = load i32, ptr %7, align 4, !tbaa !28
  %14 = add nsw i32 %13, 64
  %15 = sext i32 %14 to i64
  %16 = call ptr @av_buffer_create(ptr noundef %12, i64 noundef %15, ptr noundef @av_buffer_default_free, ptr noundef null, i32 noundef 0)
  %17 = load ptr, ptr %5, align 8, !tbaa !4
  %18 = getelementptr inbounds nuw %struct.AVPacket, ptr %17, i32 0, i32 0
  store ptr %16, ptr %18, align 8, !tbaa !22
  %19 = load ptr, ptr %5, align 8, !tbaa !4
  %20 = getelementptr inbounds nuw %struct.AVPacket, ptr %19, i32 0, i32 0
  %21 = load ptr, ptr %20, align 8, !tbaa !22
  %22 = icmp ne ptr %21, null
  br i1 %22, label %24, label %23

23:                                               ; preds = %11
  store i32 -12, ptr %4, align 4
  br label %31

24:                                               ; preds = %11
  %25 = load ptr, ptr %6, align 8, !tbaa !42
  %26 = load ptr, ptr %5, align 8, !tbaa !4
  %27 = getelementptr inbounds nuw %struct.AVPacket, ptr %26, i32 0, i32 3
  store ptr %25, ptr %27, align 8, !tbaa !38
  %28 = load i32, ptr %7, align 4, !tbaa !28
  %29 = load ptr, ptr %5, align 8, !tbaa !4
  %30 = getelementptr inbounds nuw %struct.AVPacket, ptr %29, i32 0, i32 4
  store i32 %28, ptr %30, align 8, !tbaa !39
  store i32 0, ptr %4, align 4
  br label %31

31:                                               ; preds = %24, %23, %10
  %32 = load i32, ptr %4, align 4
  ret i32 %32
}