; Function Attrs: nounwind uwtable
define range(i32 -22, 1) i32 @av_packet_from_data(ptr noundef writeonly captures(none) %0, ptr noundef %1, i32 noundef %2) local_unnamed_addr #3 {
  %4 = icmp sgt i32 %2, 2147483582
  br i1 %4, label %12, label %5

5:                                                ; preds = %3
  %6 = add nsw i32 %2, 64
  %7 = sext i32 %6 to i64
  %8 = tail call ptr @av_buffer_create(ptr noundef %1, i64 noundef %7, ptr noundef nonnull @av_buffer_default_free, ptr noundef null, i32 noundef 0) #16
  store ptr %8, ptr %0, align 8, !tbaa !20
  %.not = icmp eq ptr %8, null
  br i1 %.not, label %12, label %9

9:                                                ; preds = %5
  %10 = getelementptr inbounds nuw i8, ptr %0, i64 24
  store ptr %1, ptr %10, align 8, !tbaa !31
  %11 = getelementptr inbounds nuw i8, ptr %0, i64 32
  store i32 %2, ptr %11, align 8, !tbaa !32
  br label %12

12:                                               ; preds = %5, %3, %9
  %.0 = phi i32 [ 0, %9 ], [ -22, %3 ], [ -12, %5 ]
  ret i32 %.0
}